target datalayout = "e-m:e-p270:32:32-p271:32:32-p272:64:64-i64:64-i128:128-f80:128-n8:16:32:64-S128"
target triple = "x86_64-pc-linux-gnu"

%struct.Abc_Obj_t_ = type { ptr, ptr, i32, i32, %struct.Vec_Int_t_, %struct.Vec_Int_t_, %union.anon.1, %union.anon.2 }
%struct.Vec_Int_t_ = type { i32, i32, ptr }
%union.anon.1 = type { ptr }
%union.anon.2 = type { ptr }
%struct.Vec_Ptr_t_ = type { i32, i32, ptr }
%struct.Abc_Ntk_t_ = type { i32, i32, ptr, ptr, ptr, ptr, ptr, ptr, ptr, ptr, ptr, ptr, ptr, [11 x i32], i32, i32, i32, i32, ptr, i32, ptr, ptr, i32, i32, i32, double, i32, %struct.Vec_Int_t_, ptr, ptr, ptr, ptr, ptr, float, i32, ptr, ptr, ptr, ptr, ptr, ptr, ptr, ptr, ptr, ptr, ptr, ptr, ptr, ptr, ptr, ptr, ptr, ptr, ptr, ptr, ptr }
%struct.Aig_Man_t_ = type { ptr, ptr, ptr, ptr, ptr, ptr, ptr, %struct.Aig_Obj_t_, i32, i32, i32, i32, i32, i32, [7 x i32], i32, ptr, i32, ptr, i32, ptr, i32, i32, i32, ptr, i32, i32, i32, i32, i32, ptr, ptr, i32, ptr, ptr, i32, ptr, ptr, i32, i32, i32, ptr, ptr, ptr, ptr, ptr, ptr, ptr, ptr, ptr, ptr, ptr, ptr, ptr, ptr, i32, ptr, ptr, ptr, ptr, i32, i64, i64, i64, ptr, ptr }
%struct.Aig_Obj_t_ = type { %union.anon, ptr, ptr, i64, i32, i32, %union.anon.0 }
%union.anon = type { ptr }
%union.anon.0 = type { ptr }
%struct.Fraig_ParamsStruct_t_ = type { i32, i32, i32, i32, i32, i32, i32, i32, i32, i32, i32, i32, i32, i32, i64 }
%struct.Fra_Ssw_t_ = type { i32, i32, i32, i32, i32, i32, i32, i32, i32, i32, i32, i32, i32, i32, i32, i32, float }
%struct.timespec = type { i64, i64 }

@.str.32 = private unnamed_addr constant [5 x i8] c"%s =\00", align 1
@.str.33 = private unnamed_addr constant [11 x i8] c"%9.2f sec\0A\00", align 1
@.str.36 = private unnamed_addr constant [22 x i8] c"Initial fraiging time\00", align 1

; Function Attrs: nounwind uwtable
define internal ptr @Vec_PtrEntry(ptr noundef %0, i32 noundef %1) #0 {
  %3 = alloca ptr, align 8
  %4 = alloca i32, align 4
  store ptr %0, ptr %3, align 8
  store i32 %1, ptr %4, align 4
  %5 = load ptr, ptr %3, align 8
  %6 = getelementptr inbounds %struct.Vec_Ptr_t_, ptr %5, i32 0, i32 2
  %7 = load ptr, ptr %6, align 8
  %8 = load i32, ptr %4, align 4
  %9 = sext i32 %8 to i64
  %10 = getelementptr inbounds ptr, ptr %7, i64 %9
  %11 = load ptr, ptr %10, align 8
  ret ptr %11
}

; Function Attrs: nounwind uwtable
define internal void @Abc_LatchSetInit0(ptr noundef %0) #0 {
  %2 = alloca ptr, align 8
  store ptr %0, ptr %2, align 8
  %3 = load ptr, ptr %2, align 8
  %4 = getelementptr inbounds %struct.Abc_Obj_t_, ptr %3, i32 0, i32 6
  %5 = inttoptr i64 1 to ptr
  store ptr %5, ptr %4, align 8
  ret void
}

; Function Attrs: nounwind uwtable
define internal i32 @Abc_ObjIsLatch(ptr noundef %0) #0 {
  %2 = alloca ptr, align 8
  store ptr %0, ptr %2, align 8
  %3 = load ptr, ptr %2, align 8
  %4 = getelementptr inbounds %struct.Abc_Obj_t_, ptr %3, i32 0, i32 3
  %5 = load i32, ptr %4, align 4
  %6 = and i32 %5, 15
  %7 = icmp eq i32 %6, 8
  %8 = zext i1 %7 to i32
  ret i32 %8
}

; Function Attrs: nounwind uwtable
define internal ptr @Abc_NtkBox(ptr noundef %0, i32 noundef %1) #0 {
  %3 = alloca ptr, align 8
  %4 = alloca i32, align 4
  store ptr %0, ptr %3, align 8
  store i32 %1, ptr %4, align 4
  %5 = load ptr, ptr %3, align 8
  %6 = getelementptr inbounds %struct.Abc_Ntk_t_, ptr %5, i32 0, i32 11
  %7 = load ptr, ptr %6, align 8
  %8 = load i32, ptr %4, align 4
  %9 = call ptr @Vec_PtrEntry(ptr noundef %7, i32 noundef %8)
  ret ptr %9
}

; Function Attrs: nounwind uwtable
define internal i32 @Vec_PtrSize(ptr noundef %0) #0 {
  %2 = alloca ptr, align 8
  store ptr %0, ptr %2, align 8
  %3 = load ptr, ptr %2, align 8
  %4 = getelementptr inbounds %struct.Vec_Ptr_t_, ptr %3, i32 0, i32 1
  %5 = load i32, ptr %4, align 4
  ret i32 %5
}

; Function Attrs: nounwind uwtable
define internal i32 @Abc_NtkLatchNum(ptr noundef %0) #0 {
  %2 = alloca ptr, align 8
  store ptr %0, ptr %2, align 8
  %3 = load ptr, ptr %2, align 8
  %4 = getelementptr inbounds %struct.Abc_Ntk_t_, ptr %3, i32 0, i32 13
  %5 = getelementptr inbounds [11 x i32], ptr %4, i64 0, i64 8
  %6 = load i32, ptr %5, align 8
  ret i32 %6
}

; Function Attrs: nounwind uwtable
define internal i32 @Aig_ManRegNum(ptr noundef %0) #0 {
  %2 = alloca ptr, align 8
  store ptr %0, ptr %2, align 8
  %3 = load ptr, ptr %2, align 8
  %4 = getelementptr inbounds %struct.Aig_Man_t_, ptr %3, i32 0, i32 8
  %5 = load i32, ptr %4, align 8
  ret i32 %5
}

; Function Attrs: nounwind uwtable
define internal i64 @Abc_Clock() #0 {
  %1 = alloca i64, align 8
  %2 = alloca %struct.timespec, align 8
  %3 = alloca i64, align 8
  %4 = call i32 @clock_gettime(i32 noundef 1, ptr noundef %2) #10
  %5 = icmp slt i32 %4, 0
  br i1 %5, label %6, label %7

6:                                                ; preds = %0
  store i64 -1, ptr %1, align 8
  br label %18

7:                                                ; preds = %0
  %8 = getelementptr inbounds %struct.timespec, ptr %2, i32 0, i32 0
  %9 = load i64, ptr %8, align 8
  %10 = mul nsw i64 %9, 1000000
  store i64 %10, ptr %3, align 8
  %11 = getelementptr inbounds %struct.timespec, ptr %2, i32 0, i32 1
  %12 = load i64, ptr %11, align 8
  %13 = mul nsw i64 %12, 1000000
  %14 = sdiv i64 %13, 1000000000
  %15 = load i64, ptr %3, align 8
  %16 = add nsw i64 %15, %14
  store i64 %16, ptr %3, align 8
  %17 = load i64, ptr %3, align 8
  store i64 %17, ptr %1, align 8
  br label %18

18:                                               ; preds = %7, %6
  %19 = load i64, ptr %1, align 8
  ret i64 %19
}

; Function Attrs: nounwind uwtable
define ptr @Abc_NtkDarSeqSweep(ptr noundef %0, ptr noundef %1) #0 {
  %3 = alloca ptr, align 8
  %4 = alloca ptr, align 8
  %5 = alloca ptr, align 8
  %6 = alloca %struct.Fraig_ParamsStruct_t_, align 8
  %7 = alloca ptr, align 8
  %8 = alloca ptr, align 8
  %9 = alloca ptr, align 8
  %10 = alloca ptr, align 8
  %11 = alloca i64, align 8
  %12 = alloca ptr, align 8
  %13 = alloca i32, align 4
  store ptr %0, ptr %4, align 8
  store ptr %1, ptr %5, align 8
  store ptr null, ptr %7, align 8
  %14 = call i64 @Abc_Clock()
  store i64 %14, ptr %11, align 8
  call void @Fraig_ParamsSetDefault(ptr noundef %6)
  %15 = getelementptr inbounds %struct.Fraig_ParamsStruct_t_, ptr %6, i32 0, i32 2
  store i32 100000, ptr %15, align 8
  %16 = load ptr, ptr %5, align 8
  %17 = getelementptr inbounds %struct.Fra_Ssw_t_, ptr %16, i32 0, i32 9
  %18 = load i32, ptr %17, align 4
  %19 = icmp ne i32 %18, 0
  br i1 %19, label %20, label %40

20:                                               ; preds = %2
  %21 = load ptr, ptr %5, align 8
  %22 = getelementptr inbounds %struct.Fra_Ssw_t_, ptr %21, i32 0, i32 0
  %23 = load i32, ptr %22, align 4
  %24 = icmp eq i32 %23, 0
  br i1 %24, label %25, label %40

25:                                               ; preds = %20
  %26 = load ptr, ptr %4, align 8
  %27 = call ptr @Abc_NtkFraig(ptr noundef %26, ptr noundef %6, i32 noundef 0, i32 noundef 0)
  store ptr %27, ptr %8, align 8
  %28 = load ptr, ptr %5, align 8
  %29 = getelementptr inbounds %struct.Fra_Ssw_t_, ptr %28, i32 0, i32 13
  %30 = load i32, ptr %29, align 4
  %31 = icmp ne i32 %30, 0
  br i1 %31, label %32, label %39

32:                                               ; preds = %25
  call void (i32, ptr, ...) @Abc_Print(i32 noundef 1, ptr noundef @.str.32, ptr noundef @.str.36)
  %33 = call i64 @Abc_Clock()
  %34 = load i64, ptr %11, align 8
  %35 = sub nsw i64 %33, %34
  %36 = sitofp i64 %35 to double
  %37 = fmul double 1.000000e+00, %36
  %38 = fdiv double %37, 1.000000e+06
  call void (i32, ptr, ...) @Abc_Print(i32 noundef 1, ptr noundef @.str.33, double noundef %38)
  br label %39

39:                                               ; preds = %32, %25
  br label %43

40:                                               ; preds = %20, %2
  %41 = load ptr, ptr %4, align 8
  %42 = call ptr @Abc_NtkDup(ptr noundef %41)
  store ptr %42, ptr %8, align 8
  br label %43

43:                                               ; preds = %40, %39
  %44 = load ptr, ptr %8, align 8
  %45 = call ptr @Abc_NtkToDar(ptr noundef %44, i32 noundef 0, i32 noundef 1)
  store ptr %45, ptr %9, align 8
  %46 = load ptr, ptr %8, align 8
  call void @Abc_NtkDelete(ptr noundef %46)
  %47 = load ptr, ptr %9, align 8
  %48 = icmp eq ptr %47, null
  br i1 %48, label %49, label %50

49:                                               ; preds = %43
  store ptr null, ptr %3, align 8
  br label %100

50:                                               ; preds = %43
  %51 = load ptr, ptr %9, align 8
  store ptr %51, ptr %10, align 8
  %52 = load ptr, ptr %5, align 8
  %53 = call ptr @Fra_FraigInduction(ptr noundef %51, ptr noundef %52)
  store ptr %53, ptr %9, align 8
  %54 = load ptr, ptr %10, align 8
  call void @Aig_ManStop(ptr noundef %54)
  %55 = load ptr, ptr %9, align 8
  %56 = icmp ne ptr %55, null
  br i1 %56, label %57, label %98

57:                                               ; preds = %50
  %58 = load ptr, ptr %9, align 8
  %59 = call i32 @Aig_ManRegNum(ptr noundef %58)
  %60 = load ptr, ptr %4, align 8
  %61 = call i32 @Abc_NtkLatchNum(ptr noundef %60)
  %62 = icmp slt i32 %59, %61
  br i1 %62, label %63, label %67

63:                                               ; preds = %57
  %64 = load ptr, ptr %4, align 8
  %65 = load ptr, ptr %9, align 8
  %66 = call ptr @Abc_NtkFromDarSeqSweep(ptr noundef %64, ptr noundef %65)
  store ptr %66, ptr %7, align 8
  br label %96

67:                                               ; preds = %57
  %68 = load ptr, ptr %4, align 8
  %69 = load ptr, ptr %9, align 8
  %70 = call ptr @Abc_NtkFromDar(ptr noundef %68, ptr noundef %69)
  store ptr %70, ptr %7, align 8
  store i32 0, ptr %13, align 4
  br label %71

71:                                               ; preds = %92, %67
  %72 = load i32, ptr %13, align 4
  %73 = load ptr, ptr %7, align 8
  %74 = getelementptr inbounds %struct.Abc_Ntk_t_, ptr %73, i32 0, i32 11
  %75 = load ptr, ptr %74, align 8
  %76 = call i32 @Vec_PtrSize(ptr noundef %75)
  %77 = icmp slt i32 %72, %76
  br i1 %77, label %78, label %82

78:                                               ; preds = %71
  %79 = load ptr, ptr %7, align 8
  %80 = load i32, ptr %13, align 4
  %81 = call ptr @Abc_NtkBox(ptr noundef %79, i32 noundef %80)
  store ptr %81, ptr %12, align 8
  br label %82

82:                                               ; preds = %78, %71
  %83 = phi i1 [ false, %71 ], [ true, %78 ]
  br i1 %83, label %84, label %95

84:                                               ; preds = %82
  %85 = load ptr, ptr %12, align 8
  %86 = call i32 @Abc_ObjIsLatch(ptr noundef %85)
  %87 = icmp ne i32 %86, 0
  br i1 %87, label %89, label %88

88:                                               ; preds = %84
  br label %91

89:                                               ; preds = %84
  %90 = load ptr, ptr %12, align 8
  call void @Abc_LatchSetInit0(ptr noundef %90)
  br label %91

91:                                               ; preds = %89, %88
  br label %92

92:                                               ; preds = %91
  %93 = load i32, ptr %13, align 4
  %94 = add nsw i32 %93, 1
  store i32 %94, ptr %13, align 4
  br label %71, !llvm.loop !82

95:                                               ; preds = %82
  br label %96

96:                                               ; preds = %95, %63
  %97 = load ptr, ptr %9, align 8
  call void @Aig_ManStop(ptr noundef %97)
  br label %98

98:                                               ; preds = %96, %50
  %99 = load ptr, ptr %7, align 8
  store ptr %99, ptr %3, align 8
  br label %100

100:                                              ; preds = %98, %49
  %101 = load ptr, ptr %3, align 8
  ret ptr %101
}