; Function Attrs: nounwind uwtable
define ptr @Abc_NtkDarSeqSweep(ptr noundef %0, ptr noundef %1) local_unnamed_addr #1 {
  %3 = alloca %struct.timespec, align 8
  %4 = alloca %struct.timespec, align 8
  %5 = alloca %struct.Fraig_ParamsStruct_t_, align 8
  call void @llvm.lifetime.start.p0(i64 16, ptr nonnull %4)
  %6 = call i32 @clock_gettime(i32 noundef 1, ptr noundef nonnull %4) #19
  %7 = icmp slt i32 %6, 0
  br i1 %7, label %Abc_Clock.exit, label %8

8:                                                ; preds = %2
  %9 = load i64, ptr %4, align 8
  %.neg42 = mul i64 %9, -1000000
  %10 = getelementptr inbounds nuw i8, ptr %4, i64 8
  %11 = load i64, ptr %10, align 8
  %.neg = sdiv i64 %11, -1000
  %.neg43 = add i64 %.neg, %.neg42
  br label %Abc_Clock.exit

Abc_Clock.exit:                                   ; preds = %2, %8
  %.0.i.neg = phi i64 [ %.neg43, %8 ], [ 1, %2 ]
  call void @llvm.lifetime.end.p0(i64 16, ptr nonnull %4)
  call void @Fraig_ParamsSetDefault(ptr noundef nonnull %5) #19
  %12 = getelementptr inbounds nuw i8, ptr %5, i64 8
  store i32 100000, ptr %12, align 8
  %13 = getelementptr inbounds nuw i8, ptr %1, i64 36
  %14 = load i32, ptr %13, align 4
  %.not = icmp eq i32 %14, 0
  br i1 %.not, label %35, label %15

15:                                               ; preds = %Abc_Clock.exit
  %16 = load i32, ptr %1, align 4
  %17 = icmp eq i32 %16, 0
  br i1 %17, label %18, label %35

18:                                               ; preds = %15
  %19 = call ptr @Abc_NtkFraig(ptr noundef %0, ptr noundef nonnull %5, i32 noundef 0, i32 noundef 0) #19
  %20 = getelementptr inbounds nuw i8, ptr %1, i64 52
  %21 = load i32, ptr %20, align 4
  %.not33 = icmp eq i32 %21, 0
  br i1 %.not33, label %37, label %22

22:                                               ; preds = %18
  call void (i32, ptr, ...) @Abc_Print(i32 poison, ptr noundef nonnull @.str.32, ptr noundef nonnull @.str.36)
  call void @llvm.lifetime.start.p0(i64 16, ptr nonnull %3)
  %23 = call i32 @clock_gettime(i32 noundef 1, ptr noundef nonnull %3) #19
  %24 = icmp slt i32 %23, 0
  br i1 %24, label %Abc_Clock.exit41, label %25

25:                                               ; preds = %22
  %26 = load i64, ptr %3, align 8
  %27 = mul nsw i64 %26, 1000000
  %28 = getelementptr inbounds nuw i8, ptr %3, i64 8
  %29 = load i64, ptr %28, align 8
  %30 = sdiv i64 %29, 1000
  %31 = add nsw i64 %30, %27
  br label %Abc_Clock.exit41

Abc_Clock.exit41:                                 ; preds = %22, %25
  %.0.i40 = phi i64 [ %31, %25 ], [ -1, %22 ]
  call void @llvm.lifetime.end.p0(i64 16, ptr nonnull %3)
  %32 = add i64 %.0.i40, %.0.i.neg
  %33 = sitofp i64 %32 to double
  %34 = fdiv double %33, 1.000000e+06
  call void (i32, ptr, ...) @Abc_Print(i32 poison, ptr noundef nonnull @.str.33, double noundef %34)
  br label %37

35:                                               ; preds = %15, %Abc_Clock.exit
  %36 = call ptr @Abc_NtkDup(ptr noundef %0) #19
  br label %37

37:                                               ; preds = %18, %Abc_Clock.exit41, %35
  %.030 = phi ptr [ %19, %Abc_Clock.exit41 ], [ %19, %18 ], [ %36, %35 ]
  %38 = call ptr @Abc_NtkToDar(ptr noundef %.030, i32 noundef 0, i32 noundef 1)
  call void @Abc_NtkDelete(ptr noundef %.030) #19
  %39 = icmp eq ptr %38, null
  br i1 %39, label %67, label %40

40:                                               ; preds = %37
  %41 = call ptr @Fra_FraigInduction(ptr noundef nonnull %38, ptr noundef nonnull %1) #19
  call void @Aig_ManStop(ptr noundef nonnull %38) #19
  %.not34 = icmp eq ptr %41, null
  br i1 %.not34, label %67, label %42

42:                                               ; preds = %40
  %43 = getelementptr i8, ptr %41, i64 104
  %.val39 = load i32, ptr %43, align 8
  %44 = getelementptr i8, ptr %0, i64 128
  %.val38 = load i32, ptr %44, align 8
  %45 = icmp slt i32 %.val39, %.val38
  br i1 %45, label %46, label %48

46:                                               ; preds = %42
  %47 = call ptr @Abc_NtkFromDarSeqSweep(ptr noundef nonnull %0, ptr noundef nonnull %41)
  br label %.critedge

48:                                               ; preds = %42
  %49 = call ptr @Abc_NtkFromDar(ptr noundef nonnull %0, ptr noundef nonnull %41)
  %50 = getelementptr inbounds nuw i8, ptr %49, i64 80
  %51 = load ptr, ptr %50, align 8
  %52 = getelementptr i8, ptr %51, i64 4
  %.val45 = load i32, ptr %52, align 4
  %53 = icmp sgt i32 %.val45, 0
  br i1 %53, label %.lr.ph, label %.critedge

.lr.ph:                                           ; preds = %48, %62
  %54 = phi ptr [ %63, %62 ], [ %51, %48 ]
  %indvars.iv = phi i64 [ %indvars.iv.next, %62 ], [ 0, %48 ]
  %55 = getelementptr i8, ptr %54, i64 8
  %.val36.val = load ptr, ptr %55, align 8
  %56 = getelementptr inbounds nuw ptr, ptr %.val36.val, i64 %indvars.iv
  %57 = load ptr, ptr %56, align 8
  %58 = getelementptr i8, ptr %57, i64 20
  %.val37 = load i32, ptr %58, align 4
  %59 = and i32 %.val37, 15
  %.not44 = icmp eq i32 %59, 8
  br i1 %.not44, label %60, label %62

60:                                               ; preds = %.lr.ph
  %61 = getelementptr inbounds nuw i8, ptr %57, i64 56
  store ptr inttoptr (i64 1 to ptr), ptr %61, align 8
  %.pre = load ptr, ptr %50, align 8
  br label %62

62:                                               ; preds = %60, %.lr.ph
  %63 = phi ptr [ %.pre, %60 ], [ %54, %.lr.ph ]
  %indvars.iv.next = add nuw nsw i64 %indvars.iv, 1
  %64 = getelementptr i8, ptr %63, i64 4
  %.val = load i32, ptr %64, align 4
  %65 = sext i32 %.val to i64
  %66 = icmp slt i64 %indvars.iv.next, %65
  br i1 %66, label %.lr.ph, label %.critedge, !llvm.loop !82

.critedge:                                        ; preds = %62, %48, %46
  %.1 = phi ptr [ %47, %46 ], [ %49, %48 ], [ %49, %62 ]
  call void @Aig_ManStop(ptr noundef nonnull %41) #19
  br label %67

67:                                               ; preds = %40, %.critedge, %37
  %.028 = phi ptr [ null, %37 ], [ %.1, %.critedge ], [ null, %40 ]
  ret ptr %.028
}